; Function Attrs: nounwind uwtable
define dso_local void @llvm_emit_unreachable(ptr nocapture noundef %0) local_unnamed_addr #0 {
  %2 = getelementptr inbounds i8, ptr %0, i64 64
  %3 = load ptr, ptr %2, align 8
  %4 = tail call ptr @LLVMBuildUnreachable(ptr noundef %3) #9
  %5 = getelementptr inbounds i8, ptr %0, i64 80
  store ptr null, ptr %5, align 8
  %6 = getelementptr inbounds i8, ptr %0, i64 424
  %7 = load i8, ptr %6, align 8
  %8 = and i8 %7, -2
  store i8 %8, ptr %6, align 8
  ret void
}